; Function Attrs: mustprogress uwtable
define void @_ZNK4cvc58internal7Printer22toStreamCmdDeclareTypeERSoNS0_8TypeNodeE(ptr noundef nonnull align 8 dereferenceable(8) %this, ptr noundef nonnull align 8 dereferenceable(8) %out, ptr noundef nonnull %type) local_unnamed_addr #4 align 2 personality ptr @__gxx_personality_v0 {
entry:
  %ref.tmp = alloca %"class.std::__cxx11::basic_string", align 8
  %call = tail call noundef zeroext i1 @_ZNK4cvc58internal8TypeNode30isUninterpretedSortConstructorEv(ptr noundef nonnull align 8 dereferenceable(8) %type)
  br i1 %call, label %cond.true, label %cond.end

cond.true:                                        ; preds = %entry
  %call2 = tail call noundef i64 @_ZNK4cvc58internal8TypeNode36getUninterpretedSortConstructorArityEv(ptr noundef nonnull align 8 dereferenceable(8) %type)
  br label %cond.end

cond.end:                                         ; preds = %entry, %cond.true
  %cond = phi i64 [ %call2, %cond.true ], [ 0, %entry ]
  call void @_ZNK4cvc58internal8TypeNode7getNameB5cxx11Ev(ptr nonnull sret(%"class.std::__cxx11::basic_string") align 8 %ref.tmp, ptr noundef nonnull align 8 dereferenceable(8) %type)
  %vtable = load ptr, ptr %this, align 8
  %vfn = getelementptr inbounds i8, ptr %vtable, i64 176
  %0 = load ptr, ptr %vfn, align 8
  invoke void %0(ptr noundef nonnull align 8 dereferenceable(8) %this, ptr noundef nonnull align 8 dereferenceable(8) %out, ptr noundef nonnull align 8 dereferenceable(32) %ref.tmp, i64 noundef %cond)
          to label %invoke.cont unwind label %lpad

invoke.cont:                                      ; preds = %cond.end
  call void @_ZNSt7__cxx1112basic_stringIcSt11char_traitsIcESaIcEED1Ev(ptr noundef nonnull align 8 dereferenceable(32) %ref.tmp) #16
  ret void

lpad:                                             ; preds = %cond.end
  %1 = landingpad { ptr, i32 }
          cleanup
  call void @_ZNSt7__cxx1112basic_stringIcSt11char_traitsIcESaIcEED1Ev(ptr noundef nonnull align 8 dereferenceable(32) %ref.tmp) #16
  resume { ptr, i32 } %1
}